target datalayout = "e-m:e-p270:32:32-p271:32:32-p272:64:64-i64:64-i128:128-f80:128-n8:16:32:64-S128"
target triple = "x86_64-pc-linux-gnu"

@H5_libterm_g = external global i8, align 1
@.str.1 = private unnamed_addr constant [101 x i8] c"generated/home/dtcxzyw/WorkSpace/Projects/compilers/llvm-opt-benchmark/bench/hdf5/hdf5/src/H5Pgcpl.c\00", align 1
@H5P_init_g = external global i8, align 1
@.str.6 = private unnamed_addr constant [11 x i8] c"group info\00", align 1
@H5E_PLIST_g = external global i64, align 8
@.str.15 = private unnamed_addr constant [10 x i8] c"link info\00", align 1
@__func__.H5P__gcrt_reg_prop = private unnamed_addr constant [19 x i8] c"H5P__gcrt_reg_prop\00", align 1
@H5E_CANTINSERT_g = external global i64, align 8
@.str.18 = private unnamed_addr constant [33 x i8] c"can't insert property into class\00", align 1
@H5G_def_ginfo_g = internal constant { i32, i8, i8, i16, i16, i8, i8, i16, i16 } { i32 0, i8 0, i8 0, i16 8, i16 6, i8 0, i8 0, i16 4, i16 8 }, align 4
@H5G_def_linfo_g = internal constant { i8, i8, [6 x i8], i64, i64, i64, i64, i64 } { i8 0, i8 0, [6 x i8] zeroinitializer, i64 0, i64 -1, i64 0, i64 -1, i64 -1 }, align 8

; Function Attrs: nounwind uwtable
define internal i32 @H5P__gcrt_reg_prop(ptr noundef %0) #0 {
  %2 = alloca ptr, align 8
  %3 = alloca i32, align 4
  %4 = alloca i8, align 1
  store ptr %0, ptr %2, align 8, !tbaa !3
  call void @llvm.lifetime.start.p0(i64 4, ptr %3) #6
  store i32 0, ptr %3, align 4, !tbaa !8
  call void @llvm.lifetime.start.p0(i64 1, ptr %4) #6
  store i8 0, ptr %4, align 1, !tbaa !10
  %5 = load i8, ptr @H5P_init_g, align 1, !tbaa !10, !range !12, !noundef !13
  %6 = trunc i8 %5 to i1
  br i1 %6, label %11, label %7

7:                                                ; preds = %1
  %8 = load i8, ptr @H5_libterm_g, align 1, !tbaa !10, !range !12, !noundef !13
  %9 = trunc i8 %8 to i1
  %10 = xor i1 %9, true
  br label %11

11:                                               ; preds = %7, %1
  %12 = phi i1 [ true, %1 ], [ %10, %7 ]
  %13 = xor i1 %12, true
  %14 = xor i1 %13, true
  %15 = zext i1 %14 to i32
  %16 = sext i32 %15 to i64
  %17 = call i64 @llvm.expect.i64(i64 %16, i64 1)
  %18 = icmp ne i64 %17, 0
  br i1 %18, label %19, label %67

19:                                               ; preds = %11
  %20 = load ptr, ptr %2, align 8, !tbaa !3
  %21 = call i32 @H5P__register_real(ptr noundef %20, ptr noundef @.str.6, i64 noundef 16, ptr noundef @H5G_def_ginfo_g, ptr noundef null, ptr noundef null, ptr noundef null, ptr noundef @H5P__gcrt_group_info_enc, ptr noundef @H5P__gcrt_group_info_dec, ptr noundef null, ptr noundef null, ptr noundef null, ptr noundef null)
  %22 = icmp slt i32 %21, 0
  br i1 %22, label %23, label %42

23:                                               ; preds = %19
  br label %24

24:                                               ; preds = %23
  br label %25

25:                                               ; preds = %24
  br label %26

26:                                               ; preds = %25
  %27 = load i64, ptr @H5E_PLIST_g, align 8, !tbaa !14
  %28 = load i64, ptr @H5E_CANTINSERT_g, align 8, !tbaa !14
  %29 = call i32 (ptr, ptr, i32, i64, i64, ptr, ...) @H5E_printf_stack(ptr noundef @.str.1, ptr noundef @__func__.H5P__gcrt_reg_prop, i32 noundef 123, i64 noundef %27, i64 noundef %28, ptr noundef @.str.18)
  br label %30

30:                                               ; preds = %26
  br label %31

31:                                               ; preds = %30
  store i8 1, ptr %4, align 1, !tbaa !10
  %32 = load i8, ptr %4, align 1, !tbaa !10, !range !12, !noundef !13
  %33 = trunc i8 %32 to i1
  %34 = zext i1 %33 to i8
  store i8 %34, ptr %4, align 1, !tbaa !10
  br label %35

35:                                               ; preds = %31
  br label %36

36:                                               ; preds = %35
  br label %37

37:                                               ; preds = %36
  store i32 -1, ptr %3, align 4, !tbaa !8
  br label %66

38:                                               ; No predecessors!
  br label %39

39:                                               ; preds = %38
  br label %40

40:                                               ; preds = %39
  br label %41

41:                                               ; preds = %40
  br label %42

42:                                               ; preds = %41, %19
  %43 = load ptr, ptr %2, align 8, !tbaa !3
  %44 = call i32 @H5P__register_real(ptr noundef %43, ptr noundef @.str.15, i64 noundef 48, ptr noundef @H5G_def_linfo_g, ptr noundef null, ptr noundef null, ptr noundef null, ptr noundef @H5P__gcrt_link_info_enc, ptr noundef @H5P__gcrt_link_info_dec, ptr noundef null, ptr noundef null, ptr noundef null, ptr noundef null)
  %45 = icmp slt i32 %44, 0
  br i1 %45, label %46, label %65

46:                                               ; preds = %42
  br label %47

47:                                               ; preds = %46
  br label %48

48:                                               ; preds = %47
  br label %49

49:                                               ; preds = %48
  %50 = load i64, ptr @H5E_PLIST_g, align 8, !tbaa !14
  %51 = load i64, ptr @H5E_CANTINSERT_g, align 8, !tbaa !14
  %52 = call i32 (ptr, ptr, i32, i64, i64, ptr, ...) @H5E_printf_stack(ptr noundef @.str.1, ptr noundef @__func__.H5P__gcrt_reg_prop, i32 noundef 129, i64 noundef %50, i64 noundef %51, ptr noundef @.str.18)
  br label %53

53:                                               ; preds = %49
  br label %54

54:                                               ; preds = %53
  store i8 1, ptr %4, align 1, !tbaa !10
  %55 = load i8, ptr %4, align 1, !tbaa !10, !range !12, !noundef !13
  %56 = trunc i8 %55 to i1
  %57 = zext i1 %56 to i8
  store i8 %57, ptr %4, align 1, !tbaa !10
  br label %58

58:                                               ; preds = %54
  br label %59

59:                                               ; preds = %58
  br label %60

60:                                               ; preds = %59
  store i32 -1, ptr %3, align 4, !tbaa !8
  br label %66

61:                                               ; No predecessors!
  br label %62

62:                                               ; preds = %61
  br label %63

63:                                               ; preds = %62
  br label %64

64:                                               ; preds = %63
  br label %65

65:                                               ; preds = %64, %42
  br label %66

66:                                               ; preds = %65, %60, %37
  br label %67

67:                                               ; preds = %66, %11
  %68 = load i32, ptr %3, align 4, !tbaa !8
  call void @llvm.lifetime.end.p0(i64 1, ptr %4) #6
  call void @llvm.lifetime.end.p0(i64 4, ptr %3) #6
  ret i32 %68
}