; Function Attrs: nounwind uwtable
define internal range(i32 -1, 1) i32 @H5P__gcrt_reg_prop(ptr noundef %0) #0 {
  %2 = load i8, ptr @H5P_init_g, align 1, !tbaa !3, !range !7, !noundef !8
  %3 = trunc nuw i8 %2 to i1
  %4 = load i8, ptr @H5_libterm_g, align 1, !range !7
  %5 = trunc nuw i8 %4 to i1
  %6 = xor i1 %5, true
  %7 = select i1 %3, i1 true, i1 %6
  br i1 %7, label %8, label %17, !prof !9

8:                                                ; preds = %1
  %9 = tail call i32 @H5P__register_real(ptr noundef %0, ptr noundef nonnull @.str.6, i64 noundef 16, ptr noundef nonnull @H5G_def_ginfo_g, ptr noundef null, ptr noundef null, ptr noundef null, ptr noundef nonnull @H5P__gcrt_group_info_enc, ptr noundef nonnull @H5P__gcrt_group_info_dec, ptr noundef null, ptr noundef null, ptr noundef null, ptr noundef null) #7
  %10 = icmp slt i32 %9, 0
  br i1 %10, label %.sink.split, label %11

11:                                               ; preds = %8
  %12 = tail call i32 @H5P__register_real(ptr noundef %0, ptr noundef nonnull @.str.15, i64 noundef 48, ptr noundef nonnull @H5G_def_linfo_g, ptr noundef null, ptr noundef null, ptr noundef null, ptr noundef nonnull @H5P__gcrt_link_info_enc, ptr noundef nonnull @H5P__gcrt_link_info_dec, ptr noundef null, ptr noundef null, ptr noundef null, ptr noundef null) #7
  %13 = icmp slt i32 %12, 0
  br i1 %13, label %.sink.split, label %17

.sink.split:                                      ; preds = %11, %8
  %.sink = phi i32 [ 123, %8 ], [ 129, %11 ]
  %14 = load i64, ptr @H5E_PLIST_g, align 8, !tbaa !10
  %15 = load i64, ptr @H5E_CANTINSERT_g, align 8, !tbaa !10
  %16 = tail call i32 (ptr, ptr, i32, i64, i64, ptr, ...) @H5E_printf_stack(ptr noundef nonnull @.str.1, ptr noundef nonnull @__func__.H5P__gcrt_reg_prop, i32 noundef %.sink, i64 noundef %14, i64 noundef %15, ptr noundef nonnull @.str.18) #7
  br label %17

17:                                               ; preds = %.sink.split, %11, %1
  %.0 = phi i32 [ 0, %11 ], [ 0, %1 ], [ -1, %.sink.split ]
  ret i32 %.0
}